target datalayout = "e-m:e-p270:32:32-p271:32:32-p272:64:64-i64:64-i128:128-f80:128-n8:16:32:64-S128"
target triple = "x86_64-pc-linux-gnu"

%struct.Bac_Man_t_ = type { ptr, ptr, ptr, ptr, i32, i32, ptr, ptr, ptr, %struct.Vec_Int_t_, %struct.Vec_Int_t_, %struct.Vec_Int_t_, %struct.Vec_Int_t_, ptr, ptr, [4 x i32], [73 x ptr], [73 x ptr] }
%struct.Vec_Int_t_ = type { i32, i32, ptr }
%struct.Dec_Graph_t_ = type { i32, i32, i32, i32, ptr, %struct.Dec_Edge_t_ }
%struct.Dec_Edge_t_ = type { i32 }

; Function Attrs: nounwind uwtable
define internal void @Dec_GraphFree(ptr noundef %0) #0 {
  %2 = alloca ptr, align 8
  store ptr %0, ptr %2, align 8
  %3 = load ptr, ptr %2, align 8
  %4 = getelementptr inbounds %struct.Dec_Graph_t_, ptr %3, i32 0, i32 4
  %5 = load ptr, ptr %4, align 8
  %6 = icmp ne ptr %5, null
  br i1 %6, label %7, label %13

7:                                                ; preds = %1
  %8 = load ptr, ptr %2, align 8
  %9 = getelementptr inbounds %struct.Dec_Graph_t_, ptr %8, i32 0, i32 4
  %10 = load ptr, ptr %9, align 8
  call void @free(ptr noundef %10) #11
  %11 = load ptr, ptr %2, align 8
  %12 = getelementptr inbounds %struct.Dec_Graph_t_, ptr %11, i32 0, i32 4
  store ptr null, ptr %12, align 8
  br label %14

13:                                               ; preds = %1
  br label %14

14:                                               ; preds = %13, %7
  %15 = load ptr, ptr %2, align 8
  %16 = icmp ne ptr %15, null
  br i1 %16, label %17, label %19

17:                                               ; preds = %14
  %18 = load ptr, ptr %2, align 8
  call void @free(ptr noundef %18) #11
  store ptr null, ptr %2, align 8
  br label %20

19:                                               ; preds = %14
  br label %20

20:                                               ; preds = %19, %17
  ret void
}

; Function Attrs: nounwind uwtable
define void @Bac_ManUndoGates(ptr noundef %0) #0 {
  %2 = alloca ptr, align 8
  %3 = alloca i32, align 4
  store ptr %0, ptr %2, align 8
  %4 = load ptr, ptr %2, align 8
  %5 = getelementptr inbounds %struct.Bac_Man_t_, ptr %4, i32 0, i32 13
  %6 = load ptr, ptr %5, align 8
  %7 = icmp eq ptr %6, null
  br i1 %7, label %8, label %9

8:                                                ; preds = %1
  br label %51

9:                                                ; preds = %1
  store i32 1, ptr %3, align 4
  br label %10

10:                                               ; preds = %35, %9
  %11 = load i32, ptr %3, align 4
  %12 = load ptr, ptr %2, align 8
  %13 = getelementptr inbounds %struct.Bac_Man_t_, ptr %12, i32 0, i32 3
  %14 = load ptr, ptr %13, align 8
  %15 = call i32 @Abc_NamObjNumMax(ptr noundef %14)
  %16 = icmp slt i32 %11, %15
  br i1 %16, label %17, label %38

17:                                               ; preds = %10
  %18 = load ptr, ptr %2, align 8
  %19 = getelementptr inbounds %struct.Bac_Man_t_, ptr %18, i32 0, i32 14
  %20 = load ptr, ptr %19, align 8
  %21 = load i32, ptr %3, align 4
  %22 = sext i32 %21 to i64
  %23 = getelementptr inbounds ptr, ptr %20, i64 %22
  %24 = load ptr, ptr %23, align 8
  %25 = icmp ne ptr %24, null
  br i1 %25, label %26, label %34

26:                                               ; preds = %17
  %27 = load ptr, ptr %2, align 8
  %28 = getelementptr inbounds %struct.Bac_Man_t_, ptr %27, i32 0, i32 14
  %29 = load ptr, ptr %28, align 8
  %30 = load i32, ptr %3, align 4
  %31 = sext i32 %30 to i64
  %32 = getelementptr inbounds ptr, ptr %29, i64 %31
  %33 = load ptr, ptr %32, align 8
  call void @Dec_GraphFree(ptr noundef %33)
  br label %34

34:                                               ; preds = %26, %17
  br label %35

35:                                               ; preds = %34
  %36 = load i32, ptr %3, align 4
  %37 = add nsw i32 %36, 1
  store i32 %37, ptr %3, align 4
  br label %10, !llvm.loop !6

38:                                               ; preds = %10
  %39 = load ptr, ptr %2, align 8
  %40 = getelementptr inbounds %struct.Bac_Man_t_, ptr %39, i32 0, i32 14
  %41 = load ptr, ptr %40, align 8
  %42 = icmp ne ptr %41, null
  br i1 %42, label %43, label %49

43:                                               ; preds = %38
  %44 = load ptr, ptr %2, align 8
  %45 = getelementptr inbounds %struct.Bac_Man_t_, ptr %44, i32 0, i32 14
  %46 = load ptr, ptr %45, align 8
  call void @free(ptr noundef %46) #11
  %47 = load ptr, ptr %2, align 8
  %48 = getelementptr inbounds %struct.Bac_Man_t_, ptr %47, i32 0, i32 14
  store ptr null, ptr %48, align 8
  br label %50

49:                                               ; preds = %38
  br label %50

50:                                               ; preds = %49, %43
  br label %51

51:                                               ; preds = %50, %8
  ret void
}