; Function Attrs: nounwind uwtable
define void @Bac_ManUndoGates(ptr noundef captures(none) %0) local_unnamed_addr #0 {
  %2 = getelementptr inbounds nuw i8, ptr %0, i64 128
  %3 = load ptr, ptr %2, align 8
  %4 = icmp eq ptr %3, null
  br i1 %4, label %26, label %.preheader

.preheader:                                       ; preds = %1
  %5 = getelementptr inbounds nuw i8, ptr %0, i64 24
  %6 = load ptr, ptr %5, align 8
  %7 = tail call i32 @Abc_NamObjNumMax(ptr noundef %6) #17
  %8 = icmp sgt i32 %7, 1
  br i1 %8, label %.lr.ph, label %._crit_edge

.lr.ph:                                           ; preds = %.preheader
  %9 = getelementptr inbounds nuw i8, ptr %0, i64 136
  br label %10

10:                                               ; preds = %.lr.ph, %18
  %indvars.iv = phi i64 [ 1, %.lr.ph ], [ %indvars.iv.next, %18 ]
  %11 = load ptr, ptr %9, align 8
  %12 = getelementptr inbounds nuw ptr, ptr %11, i64 %indvars.iv
  %13 = load ptr, ptr %12, align 8
  %.not12 = icmp eq ptr %13, null
  br i1 %.not12, label %18, label %14

14:                                               ; preds = %10
  %15 = getelementptr inbounds nuw i8, ptr %13, i64 16
  %16 = load ptr, ptr %15, align 8
  %.not.i = icmp eq ptr %16, null
  br i1 %.not.i, label %Dec_GraphFree.exit, label %17

17:                                               ; preds = %14
  tail call void @free(ptr noundef nonnull %16) #17
  br label %Dec_GraphFree.exit

Dec_GraphFree.exit:                               ; preds = %14, %17
  tail call void @free(ptr noundef nonnull %13) #17
  br label %18

18:                                               ; preds = %10, %Dec_GraphFree.exit
  %indvars.iv.next = add nuw nsw i64 %indvars.iv, 1
  %19 = load ptr, ptr %5, align 8
  %20 = tail call i32 @Abc_NamObjNumMax(ptr noundef %19) #17
  %21 = sext i32 %20 to i64
  %22 = icmp slt i64 %indvars.iv.next, %21
  br i1 %22, label %10, label %._crit_edge, !llvm.loop !6

._crit_edge:                                      ; preds = %18, %.preheader
  %23 = getelementptr inbounds nuw i8, ptr %0, i64 136
  %24 = load ptr, ptr %23, align 8
  %.not = icmp eq ptr %24, null
  br i1 %.not, label %26, label %25

25:                                               ; preds = %._crit_edge
  tail call void @free(ptr noundef nonnull %24) #17
  store ptr null, ptr %23, align 8
  br label %26

26:                                               ; preds = %25, %._crit_edge, %1
  ret void
}